target datalayout = "e-m:e-p270:32:32-p271:32:32-p272:64:64-i64:64-i128:128-f80:128-n8:16:32:64-S128"
target triple = "x86_64-pc-linux-gnu"

%struct.quic_conn_st = type { %struct.quic_obj_st, ptr, ptr, ptr, ptr, ptr, ptr, ptr, ptr, %union.bio_addr_st, %struct.quic_thread_assist_st, i64, i16, i32, i32, i64, i32, i64, i32 }
%struct.quic_obj_st = type { %struct.ssl_st, ptr, ptr, ptr, ptr, ptr, i64, i8 }
%struct.ssl_st = type { i32, ptr, ptr, ptr, %struct.CRYPTO_REF_COUNT, ptr, %struct.crypto_ex_data_st }
%struct.CRYPTO_REF_COUNT = type { i32 }
%struct.crypto_ex_data_st = type { ptr, ptr }
%union.bio_addr_st = type { %struct.sockaddr_in6, [84 x i8] }
%struct.sockaddr_in6 = type { i16, i16, i32, %struct.in6_addr, i32 }
%struct.in6_addr = type { %union.anon }
%union.anon = type { [4 x i32] }
%struct.quic_thread_assist_st = type { ptr, ptr, ptr, i32, i32 }
%struct.OSSL_TIME = type { i64 }
%struct.quic_xso_st = type { %struct.quic_obj_st, ptr, ptr, i8, ptr, i64, i64, i32, i64, i32 }
%struct.quic_stream_st = type { %struct.quic_stream_list_node_st, %struct.quic_stream_list_node_st, %struct.quic_stream_list_node_st, ptr, i64, i64, i64, i64, i64, i64, i64, ptr, ptr, %struct.quic_txfc_st, %struct.quic_rxfc_st, i64 }
%struct.quic_stream_list_node_st = type { ptr, ptr }
%struct.quic_txfc_st = type { ptr, i64, i64, i8 }
%struct.quic_rxfc_st = type { i64, i64, i64, i64, i64, i64, i64, %struct.OSSL_TIME, ptr, ptr, ptr, i8, i8, i8, i8 }

@.str = private unnamed_addr constant [32 x i8] c"../openssl/ssl/quic/quic_impl.c\00", align 1
@__func__.create_xso_from_stream = private unnamed_addr constant [23 x i8] c"create_xso_from_stream\00", align 1

; Function Attrs: nounwind uwtable
define internal void @xso_update_options(ptr noundef %0) #0 {
  %2 = alloca ptr, align 8
  %3 = alloca i32, align 4
  store ptr %0, ptr %2, align 8, !tbaa !156
  call void @llvm.lifetime.start.p0(i64 4, ptr %3) #10
  %4 = load ptr, ptr %2, align 8, !tbaa !156
  %5 = getelementptr inbounds nuw %struct.quic_xso_st, ptr %4, i32 0, i32 8
  %6 = load i64, ptr %5, align 8, !tbaa !170
  %7 = and i64 %6, 2
  %8 = icmp ne i64 %7, 0
  %9 = zext i1 %8 to i32
  store i32 %9, ptr %3, align 4, !tbaa !122
  %10 = load ptr, ptr %2, align 8, !tbaa !156
  %11 = getelementptr inbounds nuw %struct.quic_xso_st, ptr %10, i32 0, i32 2
  %12 = load ptr, ptr %11, align 8, !tbaa !142
  %13 = getelementptr inbounds nuw %struct.quic_stream_st, ptr %12, i32 0, i32 12
  %14 = load ptr, ptr %13, align 8, !tbaa !295
  %15 = icmp ne ptr %14, null
  br i1 %15, label %16, label %23

16:                                               ; preds = %1
  %17 = load ptr, ptr %2, align 8, !tbaa !156
  %18 = getelementptr inbounds nuw %struct.quic_xso_st, ptr %17, i32 0, i32 2
  %19 = load ptr, ptr %18, align 8, !tbaa !142
  %20 = getelementptr inbounds nuw %struct.quic_stream_st, ptr %19, i32 0, i32 12
  %21 = load ptr, ptr %20, align 8, !tbaa !295
  %22 = load i32, ptr %3, align 4, !tbaa !122
  call void @ossl_quic_rstream_set_cleanse(ptr noundef %21, i32 noundef %22)
  br label %23

23:                                               ; preds = %16, %1
  %24 = load ptr, ptr %2, align 8, !tbaa !156
  %25 = getelementptr inbounds nuw %struct.quic_xso_st, ptr %24, i32 0, i32 2
  %26 = load ptr, ptr %25, align 8, !tbaa !142
  %27 = getelementptr inbounds nuw %struct.quic_stream_st, ptr %26, i32 0, i32 11
  %28 = load ptr, ptr %27, align 8, !tbaa !145
  %29 = icmp ne ptr %28, null
  br i1 %29, label %30, label %37

30:                                               ; preds = %23
  %31 = load ptr, ptr %2, align 8, !tbaa !156
  %32 = getelementptr inbounds nuw %struct.quic_xso_st, ptr %31, i32 0, i32 2
  %33 = load ptr, ptr %32, align 8, !tbaa !142
  %34 = getelementptr inbounds nuw %struct.quic_stream_st, ptr %33, i32 0, i32 11
  %35 = load ptr, ptr %34, align 8, !tbaa !145
  %36 = load i32, ptr %3, align 4, !tbaa !122
  call void @ossl_quic_sstream_set_cleanse(ptr noundef %35, i32 noundef %36)
  br label %37

37:                                               ; preds = %30, %23
  call void @llvm.lifetime.end.p0(i64 4, ptr %3) #10
  ret void
}

; Function Attrs: nounwind uwtable
define internal ptr @create_xso_from_stream(ptr noundef %0, ptr noundef %1) #0 {
  %3 = alloca ptr, align 8
  %4 = alloca ptr, align 8
  %5 = alloca ptr, align 8
  %6 = alloca ptr, align 8
  %7 = alloca i32, align 4
  store ptr %0, ptr %4, align 8, !tbaa !8
  store ptr %1, ptr %5, align 8, !tbaa !204
  call void @llvm.lifetime.start.p0(i64 8, ptr %6) #10
  store ptr null, ptr %6, align 8, !tbaa !156
  %8 = call noalias ptr @CRYPTO_zalloc(i64 noundef 192, ptr noundef @.str, i32 noundef 2155)
  store ptr %8, ptr %6, align 8, !tbaa !156
  %9 = icmp eq ptr %8, null
  br i1 %9, label %10, label %12

10:                                               ; preds = %2
  %11 = call i32 (ptr, ptr, i32, ptr, i32, ptr, ...) @quic_raise_non_normal_error(ptr noundef null, ptr noundef @.str, i32 noundef 2156, ptr noundef @__func__.create_xso_from_stream, i32 noundef 524303, ptr noundef null)
  br label %61

12:                                               ; preds = %2
  %13 = load ptr, ptr %6, align 8, !tbaa !156
  %14 = getelementptr inbounds nuw %struct.quic_xso_st, ptr %13, i32 0, i32 0
  %15 = load ptr, ptr %4, align 8, !tbaa !8
  %16 = getelementptr inbounds nuw %struct.quic_conn_st, ptr %15, i32 0, i32 0
  %17 = getelementptr inbounds nuw %struct.quic_obj_st, ptr %16, i32 0, i32 0
  %18 = getelementptr inbounds nuw %struct.ssl_st, ptr %17, i32 0, i32 1
  %19 = load ptr, ptr %18, align 8, !tbaa !112
  %20 = load ptr, ptr %4, align 8, !tbaa !8
  %21 = getelementptr inbounds nuw %struct.quic_conn_st, ptr %20, i32 0, i32 0
  %22 = getelementptr inbounds nuw %struct.quic_obj_st, ptr %21, i32 0, i32 0
  %23 = call i32 @ossl_quic_obj_init(ptr noundef %14, ptr noundef %19, i32 noundef 129, ptr noundef %22, ptr noundef null, ptr noundef null)
  %24 = icmp ne i32 %23, 0
  br i1 %24, label %27, label %25

25:                                               ; preds = %12
  %26 = call i32 (ptr, ptr, i32, ptr, i32, ptr, ...) @quic_raise_non_normal_error(ptr noundef null, ptr noundef @.str, i32 noundef 2162, ptr noundef @__func__.create_xso_from_stream, i32 noundef 786691, ptr noundef null)
  br label %61

27:                                               ; preds = %12
  %28 = load ptr, ptr %4, align 8, !tbaa !8
  %29 = getelementptr inbounds nuw %struct.quic_conn_st, ptr %28, i32 0, i32 0
  %30 = getelementptr inbounds nuw %struct.quic_obj_st, ptr %29, i32 0, i32 0
  %31 = call i32 @SSL_up_ref(ptr noundef %30)
  %32 = icmp ne i32 %31, 0
  br i1 %32, label %35, label %33

33:                                               ; preds = %27
  %34 = call i32 (ptr, ptr, i32, ptr, i32, ptr, ...) @quic_raise_non_normal_error(ptr noundef null, ptr noundef @.str, i32 noundef 2168, ptr noundef @__func__.create_xso_from_stream, i32 noundef 524308, ptr noundef null)
  br label %61

35:                                               ; preds = %27
  %36 = load ptr, ptr %4, align 8, !tbaa !8
  %37 = load ptr, ptr %6, align 8, !tbaa !156
  %38 = getelementptr inbounds nuw %struct.quic_xso_st, ptr %37, i32 0, i32 1
  store ptr %36, ptr %38, align 8, !tbaa !210
  %39 = load ptr, ptr %4, align 8, !tbaa !8
  %40 = getelementptr inbounds nuw %struct.quic_conn_st, ptr %39, i32 0, i32 14
  %41 = load i32, ptr %40, align 8, !tbaa !114
  %42 = load ptr, ptr %6, align 8, !tbaa !156
  %43 = getelementptr inbounds nuw %struct.quic_xso_st, ptr %42, i32 0, i32 7
  store i32 %41, ptr %43, align 8, !tbaa !199
  %44 = load ptr, ptr %4, align 8, !tbaa !8
  %45 = getelementptr inbounds nuw %struct.quic_conn_st, ptr %44, i32 0, i32 15
  %46 = load i64, ptr %45, align 8, !tbaa !116
  %47 = and i64 %46, 3725568391
  %48 = load ptr, ptr %6, align 8, !tbaa !156
  %49 = getelementptr inbounds nuw %struct.quic_xso_st, ptr %48, i32 0, i32 8
  store i64 %47, ptr %49, align 8, !tbaa !170
  %50 = load ptr, ptr %6, align 8, !tbaa !156
  %51 = getelementptr inbounds nuw %struct.quic_xso_st, ptr %50, i32 0, i32 9
  store i32 0, ptr %51, align 8, !tbaa !208
  %52 = load ptr, ptr %5, align 8, !tbaa !204
  %53 = load ptr, ptr %6, align 8, !tbaa !156
  %54 = getelementptr inbounds nuw %struct.quic_xso_st, ptr %53, i32 0, i32 2
  store ptr %52, ptr %54, align 8, !tbaa !142
  %55 = load ptr, ptr %4, align 8, !tbaa !8
  %56 = getelementptr inbounds nuw %struct.quic_conn_st, ptr %55, i32 0, i32 11
  %57 = load i64, ptr %56, align 8, !tbaa !140
  %58 = add i64 %57, 1
  store i64 %58, ptr %56, align 8, !tbaa !140
  %59 = load ptr, ptr %6, align 8, !tbaa !156
  call void @xso_update_options(ptr noundef %59)
  %60 = load ptr, ptr %6, align 8, !tbaa !156
  store ptr %60, ptr %3, align 8
  store i32 1, ptr %7, align 4
  br label %63

61:                                               ; preds = %33, %25, %10
  %62 = load ptr, ptr %6, align 8, !tbaa !156
  call void @CRYPTO_free(ptr noundef %62, ptr noundef @.str, i32 noundef 2185)
  store ptr null, ptr %3, align 8
  store i32 1, ptr %7, align 4
  br label %63

63:                                               ; preds = %61, %35
  call void @llvm.lifetime.end.p0(i64 8, ptr %6) #10
  %64 = load ptr, ptr %3, align 8
  ret ptr %64
}