; Function Attrs: nounwind uwtable
define internal fastcc ptr @create_xso_from_stream(ptr noundef %0, ptr noundef %1) unnamed_addr #0 {
  %3 = tail call noalias ptr @CRYPTO_zalloc(i64 noundef 192, ptr noundef nonnull @.str, i32 noundef 2155) #12
  %4 = icmp eq ptr %3, null
  br i1 %4, label %5, label %6

5:                                                ; preds = %2
  tail call void (ptr, ptr, i32, ptr, i32, ptr, ...) @quic_raise_non_normal_error(ptr noundef null, ptr nonnull poison, i32 noundef 2156, ptr noundef nonnull @__func__.create_xso_from_stream, i32 noundef 524303, ptr noundef null)
  br label %39

6:                                                ; preds = %2
  %7 = getelementptr inbounds nuw i8, ptr %0, i64 8
  %8 = load ptr, ptr %7, align 8, !tbaa !117
  %9 = tail call i32 @ossl_quic_obj_init(ptr noundef nonnull %3, ptr noundef %8, i32 noundef 129, ptr noundef %0, ptr noundef null, ptr noundef null) #12
  %.not = icmp eq i32 %9, 0
  br i1 %.not, label %10, label %11

10:                                               ; preds = %6
  tail call void (ptr, ptr, i32, ptr, i32, ptr, ...) @quic_raise_non_normal_error(ptr noundef null, ptr nonnull poison, i32 noundef 2162, ptr noundef nonnull @__func__.create_xso_from_stream, i32 noundef 786691, ptr noundef null)
  br label %39

11:                                               ; preds = %6
  %12 = tail call i32 @SSL_up_ref(ptr noundef nonnull %0) #12
  %.not19 = icmp eq i32 %12, 0
  br i1 %.not19, label %13, label %14

13:                                               ; preds = %11
  tail call void (ptr, ptr, i32, ptr, i32, ptr, ...) @quic_raise_non_normal_error(ptr noundef null, ptr nonnull poison, i32 noundef 2168, ptr noundef nonnull @__func__.create_xso_from_stream, i32 noundef 524308, ptr noundef null)
  br label %39

14:                                               ; preds = %11
  %15 = getelementptr inbounds nuw i8, ptr %3, i64 120
  store ptr %0, ptr %15, align 8, !tbaa !136
  %16 = getelementptr inbounds nuw i8, ptr %0, i64 344
  %17 = load i32, ptr %16, align 8, !tbaa !119
  %18 = getelementptr inbounds nuw i8, ptr %3, i64 168
  store i32 %17, ptr %18, align 8, !tbaa !175
  %19 = getelementptr inbounds nuw i8, ptr %0, i64 352
  %20 = load i64, ptr %19, align 8, !tbaa !121
  %21 = and i64 %20, 3725568391
  %22 = getelementptr inbounds nuw i8, ptr %3, i64 176
  store i64 %21, ptr %22, align 8, !tbaa !158
  %23 = getelementptr inbounds nuw i8, ptr %3, i64 184
  store i32 0, ptr %23, align 8, !tbaa !131
  %24 = getelementptr inbounds nuw i8, ptr %3, i64 128
  store ptr %1, ptr %24, align 8, !tbaa !145
  %25 = getelementptr inbounds nuw i8, ptr %0, i64 328
  %26 = load i64, ptr %25, align 8, !tbaa !144
  %27 = add i64 %26, 1
  store i64 %27, ptr %25, align 8, !tbaa !144
  %28 = trunc i64 %20 to i32
  %29 = lshr i32 %28, 1
  %30 = and i32 %29, 1
  %31 = getelementptr inbounds nuw i8, ptr %1, i64 120
  %32 = load ptr, ptr %31, align 8, !tbaa !159
  %.not.i = icmp eq ptr %32, null
  br i1 %.not.i, label %34, label %33

33:                                               ; preds = %14
  tail call void @ossl_quic_rstream_set_cleanse(ptr noundef nonnull %32, i32 noundef %30) #12
  %.pre.i = load ptr, ptr %24, align 8, !tbaa !145
  br label %34

34:                                               ; preds = %33, %14
  %35 = phi ptr [ %.pre.i, %33 ], [ %1, %14 ]
  %36 = getelementptr inbounds nuw i8, ptr %35, i64 112
  %37 = load ptr, ptr %36, align 8, !tbaa !146
  %.not7.i = icmp eq ptr %37, null
  br i1 %.not7.i, label %xso_update_options.exit, label %38

38:                                               ; preds = %34
  tail call void @ossl_quic_sstream_set_cleanse(ptr noundef nonnull %37, i32 noundef %30) #12
  br label %xso_update_options.exit

39:                                               ; preds = %13, %10, %5
  tail call void @CRYPTO_free(ptr noundef %3, ptr noundef nonnull @.str, i32 noundef 2185) #12
  br label %xso_update_options.exit

xso_update_options.exit:                          ; preds = %38, %34, %39
  %.0 = phi ptr [ null, %39 ], [ %3, %34 ], [ %3, %38 ]
  ret ptr %.0
}